(ipizzashop
PizzaShop
p0
(dp1
S'chef'
p2
(iemployees
PizzaRobot
p3
(dp4
S'salary'
p5
I50000
sS'name'
p6
S'Bob'
p7
sbsS'oven'
p8
(ipizzashop
Oven
p9
(dp10
bsS'server'
p11
(iemployees
Server
p12
(dp13
g5
I40000
sg6
S'Pat'
p14
sbsb.